; Function Attrs: nounwind sspstrong uwtable
define internal void @compare_set_expired_scan_cycle(ptr noundef %obj, ptr noundef %v, ptr noundef %name, ptr readnone captures(none) %opaque, ptr noundef %errp) #0 {
entry:
  %value = alloca i32, align 4
  %call.i = tail call ptr @object_dynamic_cast_assert(ptr noundef %obj, ptr noundef nonnull @.str.1, ptr noundef nonnull @.str, i32 noundef 40, ptr noundef nonnull @__func__.COLO_COMPARE) #16
  %call1 = call zeroext i1 @visit_type_uint32(ptr noundef %v, ptr noundef %name, ptr noundef nonnull %value, ptr noundef %errp) #16
  br i1 %call1, label %if.end, label %return

if.end:                                           ; preds = %entry
  %0 = load i32, ptr %value, align 4
  %tobool.not = icmp eq i32 %0, 0
  br i1 %tobool.not, label %if.then2, label %if.end4

if.then2:                                         ; preds = %if.end
  %call3 = call ptr @object_get_typename(ptr noundef %obj) #16
  call void (ptr, ptr, i32, ptr, ptr, ...) @error_setg_internal(ptr noundef %errp, ptr noundef nonnull @.str, i32 noundef 1119, ptr noundef nonnull @__func__.compare_set_expired_scan_cycle, ptr noundef nonnull @.str.15, ptr noundef %call3, ptr noundef %name) #16
  br label %return

if.end4:                                          ; preds = %if.end
  %expired_scan_cycle = getelementptr inbounds nuw i8, ptr %call.i, i64 209416
  store i32 %0, ptr %expired_scan_cycle, align 8
  br label %return

return:                                           ; preds = %entry, %if.end4, %if.then2
  ret void
}